; Function Attrs: nounwind uwtable
define dso_local i64 @pg_get_function_result(ptr noundef captures(none) %0) local_unnamed_addr #0 {
  %2 = alloca %struct.StringInfoData, align 8
  %3 = getelementptr inbounds nuw i8, ptr %0, i64 32
  %4 = load i64, ptr %3, align 8
  call void @llvm.lifetime.start.p0(i64 24, ptr nonnull %2) #11
  %5 = and i64 %4, 4294967295
  %6 = tail call ptr @SearchSysCache1(i32 noundef 47, i64 noundef %5) #11
  %.not = icmp eq ptr %6, null
  br i1 %.not, label %7, label %9

7:                                                ; preds = %1
  %8 = getelementptr inbounds nuw i8, ptr %0, i64 28
  store i8 1, ptr %8, align 4
  br label %24

9:                                                ; preds = %1
  %10 = getelementptr i8, ptr %6, i64 16
  %.val = load ptr, ptr %10, align 8
  %11 = getelementptr inbounds nuw i8, ptr %.val, i64 22
  %12 = load i8, ptr %11, align 2
  %13 = zext i8 %12 to i64
  %14 = getelementptr inbounds nuw i8, ptr %.val, i64 %13
  %15 = getelementptr inbounds nuw i8, ptr %14, i64 96
  %16 = load i8, ptr %15, align 4
  %17 = icmp eq i8 %16, 112
  br i1 %17, label %18, label %20

18:                                               ; preds = %9
  tail call void @ReleaseSysCache(ptr noundef nonnull %6) #11
  %19 = getelementptr inbounds nuw i8, ptr %0, i64 28
  store i8 1, ptr %19, align 4
  br label %24

20:                                               ; preds = %9
  call void @initStringInfo(ptr noundef nonnull %2) #11
  call fastcc void @print_function_rettype(ptr noundef %2, ptr noundef %6)
  call void @ReleaseSysCache(ptr noundef nonnull %6) #11
  %21 = load ptr, ptr %2, align 8
  %22 = call ptr @cstring_to_text(ptr noundef %21) #11
  call void @pfree(ptr noundef %21) #11
  %23 = ptrtoint ptr %22 to i64
  br label %24

24:                                               ; preds = %20, %18, %7
  %.0 = phi i64 [ 0, %18 ], [ %23, %20 ], [ 0, %7 ]
  call void @llvm.lifetime.end.p0(i64 24, ptr nonnull %2) #11
  ret i64 %.0
}